; Function Attrs: nounwind uwtable
define internal range(i32 0, 2) i32 @test_sanity_sign() #0 {
  %1 = tail call i32 @test_int_eq(ptr noundef nonnull @.str.8, i32 noundef 64, ptr noundef nonnull @.str.19, ptr noundef nonnull @.str.20, i32 noundef 2147483647, i32 noundef 2147483647) #4
  %.not = icmp eq i32 %1, 0
  br i1 %.not, label %4, label %2

2:                                                ; preds = %0
  %3 = tail call i32 @test_long_eq(ptr noundef nonnull @.str.8, i32 noundef 65, ptr noundef nonnull @.str.21, ptr noundef nonnull @.str.22, i64 noundef 9223372036854775807, i64 noundef 9223372036854775807) #4
  %.not1 = icmp ne i32 %3, 0
  %spec.select = zext i1 %.not1 to i32
  br label %4

4:                                                ; preds = %2, %0
  %.0 = phi i32 [ 0, %0 ], [ %spec.select, %2 ]
  ret i32 %.0
}